Certificate:
    Data:
        Version: 3 (0x2)
        Serial Number: 250349015 (0xeec05d7)
        Signature Algorithm: sha256WithRSAEncryption
        Issuer: C=CA, ST=British Columbia, L=Burnaby, O=British Columbia Institute of Technology, OU=IT Services, CN=BCIT SAML Signing/emailAddress=sslca@bcit.ca
        Validity
            Not Before: Dec  7 21:23:35 2017 GMT
            Not After : Dec  7 21:23:35 2037 GMT
        Subject: C=CA, ST=British Columbia, L=Burnaby, O=British Columbia Institute of Technology, OU=IT Services, CN=BCIT SAML Signing/emailAddress=sslca@bcit.ca
        Subject Public Key Info:
            Public Key Algorithm: rsaEncryption
            RSA Public Key: (2048 bit)
                Modulus (2048 bit):
                    00:f4:91:d7:46:69:b8:88:bc:7c:ef:ef:d9:6f:61:
                    9e:97:90:97:57:62:df:70:05:d4:dd:15:8c:fd:a4:
                    2d:04:6e:e0:ae:58:d7:ab:87:7e:54:2c:b9:6d:ab:
                    f5:9f:a3:05:1d:35:f1:97:22:aa:f5:f5:8a:5b:cb:
                    c4:ab:08:ee:f2:16:bf:85:d4:ef:a7:6f:34:af:87:
                    fd:2b:32:4c:8f:b0:f7:d1:06:e1:62:80:80:c6:13:
                    b5:71:87:83:a4:4a:8a:15:c5:91:cd:29:48:34:48:
                    83:ee:e4:87:77:23:e1:99:81:3f:b1:d0:8c:be:5f:
                    9b:8a:5c:f7:77:fa:b5:2b:cd:b0:9a:f6:3c:ef:4f:
                    25:2e:0c:6f:e6:c3:60:bc:c6:43:8e:90:dd:c4:fe:
                    ed:b8:c0:97:5b:c5:45:b7:66:cc:6f:30:0c:6a:db:
                    18:c8:2b:a6:68:84:6b:43:3a:07:e1:ef:19:36:d5:
                    47:4d:49:71:b9:07:45:17:fc:a2:29:d4:3c:01:18:
                    9e:e0:f9:8e:9e:76:58:ab:68:9d:2f:13:f8:ca:7e:
                    71:6c:e2:f6:05:85:3c:d4:1a:5e:1f:65:55:81:ea:
                    3e:6c:bb:58:aa:66:14:74:14:11:ff:98:2d:8a:62:
                    99:6c:28:3c:d8:c4:74:95:63:60:6e:4c:cf:38:bc:
                    89:0f
                Exponent: 65537 (0x10001)
    Signature Algorithm: sha256WithRSAEncryption
        e6:98:d9:60:77:bc:5f:80:fc:42:a7:18:2e:88:62:61:4b:1d:
        00:71:20:80:13:ab:c1:ac:92:99:16:27:aa:c7:8e:20:8a:cc:
        18:52:3e:08:98:b1:79:48:ae:d1:b6:d4:73:ad:11:97:ab:e2:
        52:e6:85:8e:cd:7f:8c:32:9f:19:ca:3f:33:4b:91:71:fb:e9:
        bb:84:c3:9d:89:8c:e4:16:91:45:fc:c0:63:7f:3f:89:d1:6b:
        fc:fa:cb:3c:04:c3:9e:2c:b0:69:89:20:be:3a:c6:7a:36:27:
        7f:97:2b:e4:63:8a:a1:63:39:bc:0d:b4:f8:63:39:99:4f:fd:
        1e:fd:a1:81:cd:a5:53:ac:9e:12:d3:c6:17:22:61:99:9d:e3:
        b6:1e:6e:6d:aa:ab:e7:df:90:34:19:de:72:96:51:06:91:36:
        b7:e0:01:fc:b4:02:f4:67:12:48:4a:e9:72:9b:b2:cd:17:bc:
        26:59:b5:6e:f9:c2:5f:3b:49:e7:d5:1d:e2:58:91:84:59:0e:
        d8:00:82:8b:73:66:fe:df:e5:e9:e8:a0:0d:7b:af:6f:27:25:
        c2:94:d9:6e:ec:13:df:28:6a:0c:3e:e3:84:27:68:e7:b7:5a:
        ca:1f:52:4f:59:70:8c:8e:71:45:31:ae:f2:13:44:06:e0:a5:
        9d:b1:84:d9
-----BEGIN CERTIFICATE-----
MIID+DCCAuCgAwIBAgIEDuwF1zANBgkqhkiG9w0BAQsFADCBvTELMAkGA1UEBhMC
Q0ExGTAXBgNVBAgTEEJyaXRpc2ggQ29sdW1iaWExEDAOBgNVBAcTB0J1cm5hYnkx
MTAvBgNVBAoTKEJyaXRpc2ggQ29sdW1iaWEgSW5zdGl0dXRlIG9mIFRlY2hub2xv
Z3kxFDASBgNVBAsTC0lUIFNlcnZpY2VzMRowGAYDVQQDExFCQ0lUIFNBTUwgU2ln
bmluZzEcMBoGCSqGSIb3DQEJARYNc3NsY2FAYmNpdC5jYTAeFw0xNzEyMDcyMTIz
MzVaFw0zNzEyMDcyMTIzMzVaMIG9MQswCQYDVQQGEwJDQTEZMBcGA1UECBMQQnJp
dGlzaCBDb2x1bWJpYTEQMA4GA1UEBxMHQnVybmFieTExMC8GA1UEChMoQnJpdGlz
aCBDb2x1bWJpYSBJbnN0aXR1dGUgb2YgVGVjaG5vbG9neTEUMBIGA1UECxMLSVQg
U2VydmljZXMxGjAYBgNVBAMTEUJDSVQgU0FNTCBTaWduaW5nMRwwGgYJKoZIhvcN
AQkBFg1zc2xjYUBiY2l0LmNhMIIBIjANBgkqhkiG9w0BAQEFAAOCAQ8AMIIBCgKC
AQEA9JHXRmm4iLx87+/Zb2Gel5CXV2LfcAXU3RWM/aQtBG7grljXq4d+VCy5bav1
n6MFHTXxlyKq9fWKW8vEqwju8ha/hdTvp280r4f9KzJMj7D30QbhYoCAxhO1cYeD
pEqKFcWRzSlINEiD7uSHdyPhmYE/sdCMvl+bilz3d/q1K82wmvY8708lLgxv5sNg
vMZDjpDdxP7tuMCXW8VFt2bMbzAMatsYyCumaIRrQzoH4e8ZNtVHTUlxuQdFF/yi
KdQ8ARie4PmOnnZYq2idLxP4yn5xbOL2BYU81BpeH2VVgeo+bLtYqmYUdBQR/5gt
imKZbCg82MR0lWNgbkzPOLyJDwIDAQABMA0GCSqGSIb3DQEBCwUAA4IBAQDmmNlg
d7xfgPxCpxguiGJhSx0AcSCAE6vBrJKZFieqx44giswYUj4ImLF5SK7RttRzrRGX
q+JS5oWOzX+MMp8Zyj8zS5Fx++m7hMOdiYzkFpFF/MBjfz+J0Wv8+ss8BMOeLLBp
iSC+OsZ6Nid/lyvkY4qhYzm8DbT4YzmZT/0e/aGBzaVTrJ4S08YXImGZneO2Hm5t
qqvn35A0Gd5yllEGkTa34AH8tAL0ZxJISulym7LNF7wmWbVu+cJfO0nn1R3iWJGE
WQ7YAIKLc2b+3+Xp6KANe69vJyXClNlu7BPfKGoMPuOEJ2jnt1rKH1JPWXCMjnFF
Ma7yE0QG4KWdsYTZ
-----END CERTIFICATE-----
